target datalayout = "e-m:e-p270:32:32-p271:32:32-p272:64:64-i64:64-i128:128-f80:128-n8:16:32:64-S128"
target triple = "x86_64-pc-linux-gnu"

%"class.absl::lts_20240722::log_internal::Voidify" = type { i8 }
%"class.absl::lts_20240722::log_internal::LogMessage" = type { %"class.absl::lts_20240722::base_internal::ErrnoSaver", %"class.std::unique_ptr" }
%"class.absl::lts_20240722::base_internal::ErrnoSaver" = type { i32 }
%"class.std::unique_ptr" = type { %"struct.std::__uniq_ptr_data" }
%"struct.std::__uniq_ptr_data" = type { %"class.std::__uniq_ptr_impl" }
%"class.std::__uniq_ptr_impl" = type { %"class.std::tuple" }
%"class.std::tuple" = type { %"struct.std::_Tuple_impl" }
%"struct.std::_Tuple_impl" = type { %"struct.std::_Head_base.1" }
%"struct.std::_Head_base.1" = type { ptr }
%class.grpc_ssl_credentials = type <{ %struct.grpc_channel_credentials, %struct.grpc_ssl_config, ptr, ptr, i32, [4 x i8] }>
%struct.grpc_channel_credentials = type { %"class.grpc_core::RefCounted" }
%"class.grpc_core::RefCounted" = type { %"class.grpc_core::PolymorphicRefCount", %"class.grpc_core::RefCount" }
%"class.grpc_core::PolymorphicRefCount" = type { ptr }
%"class.grpc_core::RefCount" = type { %"struct.std::atomic" }
%"struct.std::atomic" = type { %"struct.std::__atomic_base" }
%"struct.std::__atomic_base" = type { i64 }
%struct.grpc_ssl_config = type { ptr, ptr, %struct.verify_peer_options, i32, i32 }
%struct.verify_peer_options = type { ptr, ptr, ptr }
%"class.std::basic_string_view" = type { i64, ptr }

@.str = private unnamed_addr constant [144 x i8] c"generated/home/dtcxzyw/WorkSpace/Projects/compilers/llvm-opt-benchmark/bench/grpc/grpc/src/core/lib/security/credentials/ssl/ssl_credentials.cc\00", align 1
@.str.1 = private unnamed_addr constant [38 x i8] c"Could not get default pem root certs.\00", align 1
@_ZTVN9grpc_core19PolymorphicRefCountE = linkonce_odr unnamed_addr constant { [4 x ptr] } { [4 x ptr] [ptr null, ptr @_ZTIN9grpc_core19PolymorphicRefCountE, ptr @_ZN9grpc_core19PolymorphicRefCountD2Ev, ptr @_ZN9grpc_core19PolymorphicRefCountD0Ev] }, comdat, align 8

; Function Attrs: mustprogress nounwind uwtable
define linkonce_odr void @_ZNSt13__atomic_baseIlEC2El(ptr noundef nonnull align 8 dereferenceable(8) %0, i64 noundef %1) unnamed_addr #8 comdat align 2 {
  %3 = alloca ptr, align 8
  %4 = alloca i64, align 8
  store ptr %0, ptr %3, align 8, !tbaa !207
  store i64 %1, ptr %4, align 8, !tbaa !173
  %5 = load ptr, ptr %3, align 8
  %6 = getelementptr inbounds nuw %"struct.std::__atomic_base", ptr %5, i32 0, i32 0
  %7 = load i64, ptr %4, align 8, !tbaa !173
  store i64 %7, ptr %6, align 8, !tbaa !209
  ret void
}

; Function Attrs: mustprogress nounwind uwtable
define linkonce_odr void @_ZNSt6atomicIlEC2El(ptr noundef nonnull align 8 dereferenceable(8) %0, i64 noundef %1) unnamed_addr #8 comdat align 2 {
  %3 = alloca ptr, align 8
  %4 = alloca i64, align 8
  store ptr %0, ptr %3, align 8, !tbaa !205
  store i64 %1, ptr %4, align 8, !tbaa !173
  %5 = load ptr, ptr %3, align 8
  %6 = load i64, ptr %4, align 8, !tbaa !173
  call void @_ZNSt13__atomic_baseIlEC2El(ptr noundef nonnull align 8 dereferenceable(8) %5, i64 noundef %6) #3
  ret void
}

; Function Attrs: noinline noreturn nounwind uwtable
define linkonce_odr hidden void @__clang_call_terminate(ptr noundef %0) #11 comdat {
  %2 = call ptr @__cxa_begin_catch(ptr %0) #3
  call void @_ZSt9terminatev() #26
  unreachable
}

; Function Attrs: mustprogress nounwind uwtable
define linkonce_odr noundef i64 @_ZNSt11char_traitsIcE6lengthEPKc(ptr noundef %0) #8 comdat align 2 {
  %2 = alloca ptr, align 8
  store ptr %0, ptr %2, align 8, !tbaa !8
  %3 = load ptr, ptr %2, align 8, !tbaa !8
  %4 = call i64 @strlen(ptr noundef %3) #3
  ret i64 %4
}

; Function Attrs: mustprogress nounwind uwtable
define linkonce_odr void @_ZN9grpc_core8RefCountC2ElPKc(ptr noundef nonnull align 8 dereferenceable(8) %0, i64 noundef %1, ptr noundef %2) unnamed_addr #8 comdat align 2 {
  %4 = alloca ptr, align 8
  %5 = alloca i64, align 8
  %6 = alloca ptr, align 8
  store ptr %0, ptr %4, align 8, !tbaa !203
  store i64 %1, ptr %5, align 8, !tbaa !173
  store ptr %2, ptr %6, align 8, !tbaa !8
  %7 = load ptr, ptr %4, align 8
  %8 = getelementptr inbounds nuw %"class.grpc_core::RefCount", ptr %7, i32 0, i32 0
  %9 = load i64, ptr %5, align 8, !tbaa !173
  call void @_ZNSt6atomicIlEC2El(ptr noundef nonnull align 8 dereferenceable(8) %8, i64 noundef %9) #3
  ret void
}

; Function Attrs: inlinehint mustprogress nounwind uwtable
define linkonce_odr void @_ZN9grpc_core19PolymorphicRefCountC2Ev(ptr noundef nonnull align 8 dereferenceable(8) %0) unnamed_addr #6 comdat align 2 {
  %2 = alloca ptr, align 8
  store ptr %0, ptr %2, align 8, !tbaa !201
  %3 = load ptr, ptr %2, align 8
  store ptr getelementptr inbounds inrange(-16, 16) ({ [4 x ptr] }, ptr @_ZTVN9grpc_core19PolymorphicRefCountE, i32 0, i32 0, i32 2), ptr %3, align 8, !tbaa !11
  ret void
}

; Function Attrs: mustprogress nounwind uwtable
define linkonce_odr void @_ZNSt17basic_string_viewIcSt11char_traitsIcEEC2EPKc(ptr noundef nonnull align 8 dereferenceable(16) %0, ptr noundef nonnull %1) unnamed_addr #8 comdat align 2 personality ptr @__gxx_personality_v0 {
  %3 = alloca ptr, align 8
  %4 = alloca ptr, align 8
  store ptr %0, ptr %3, align 8, !tbaa !98
  store ptr %1, ptr %4, align 8, !tbaa !8
  %5 = load ptr, ptr %3, align 8
  %6 = getelementptr inbounds nuw %"class.std::basic_string_view", ptr %5, i32 0, i32 0
  %7 = load ptr, ptr %4, align 8, !tbaa !8
  %8 = invoke noundef i64 @_ZNSt11char_traitsIcE6lengthEPKc(ptr noundef %7)
          to label %9 unwind label %12

9:                                                ; preds = %2
  store i64 %8, ptr %6, align 8, !tbaa !100
  %10 = getelementptr inbounds nuw %"class.std::basic_string_view", ptr %5, i32 0, i32 1
  %11 = load ptr, ptr %4, align 8, !tbaa !8
  store ptr %11, ptr %10, align 8, !tbaa !102
  ret void

12:                                               ; preds = %2
  %13 = landingpad { ptr, i32 }
          catch ptr null
  %14 = extractvalue { ptr, i32 } %13, 0
  call void @__clang_call_terminate(ptr %14) #26
  unreachable
}

; Function Attrs: mustprogress uwtable
define linkonce_odr void @_ZN9grpc_core10RefCountedI24grpc_channel_credentialsNS_19PolymorphicRefCountENS_11UnrefDeleteEEC2EPKcl(ptr noundef nonnull align 8 dereferenceable(16) %0, ptr noundef %1, i64 noundef %2) unnamed_addr #4 comdat align 2 personality ptr @__gxx_personality_v0 {
  %4 = alloca ptr, align 8
  %5 = alloca ptr, align 8
  %6 = alloca i64, align 8
  %7 = alloca ptr, align 8
  %8 = alloca i32, align 4
  store ptr %0, ptr %4, align 8, !tbaa !105
  store ptr %1, ptr %5, align 8, !tbaa !8
  store i64 %2, ptr %6, align 8, !tbaa !173
  %9 = load ptr, ptr %4, align 8
  call void @_ZN9grpc_core19PolymorphicRefCountC2Ev(ptr noundef nonnull align 8 dereferenceable(8) %9) #3
  store ptr getelementptr inbounds inrange(-16, 16) ({ [4 x ptr] }, ptr @_ZTVN9grpc_core10RefCountedI24grpc_channel_credentialsNS_19PolymorphicRefCountENS_11UnrefDeleteEEE, i32 0, i32 0, i32 2), ptr %9, align 8, !tbaa !11
  %10 = getelementptr inbounds nuw %"class.grpc_core::RefCounted", ptr %9, i32 0, i32 1
  %11 = load i64, ptr %6, align 8, !tbaa !173
  %12 = load ptr, ptr %5, align 8, !tbaa !8
  invoke void @_ZN9grpc_core8RefCountC2ElPKc(ptr noundef nonnull align 8 dereferenceable(8) %10, i64 noundef %11, ptr noundef %12)
          to label %13 unwind label %14

13:                                               ; preds = %3
  ret void

14:                                               ; preds = %3
  %15 = landingpad { ptr, i32 }
          cleanup
  %16 = extractvalue { ptr, i32 } %15, 0
  store ptr %16, ptr %7, align 8
  %17 = extractvalue { ptr, i32 } %15, 1
  store i32 %17, ptr %8, align 4
  call void @_ZN9grpc_core19PolymorphicRefCountD2Ev(ptr noundef nonnull align 8 dereferenceable(8) %9) #3
  br label %18

18:                                               ; preds = %14
  %19 = load ptr, ptr %7, align 8
  %20 = load i32, ptr %8, align 4
  %21 = insertvalue { ptr, i32 } poison, ptr %19, 0
  %22 = insertvalue { ptr, i32 } %21, i32 %20, 1
  resume { ptr, i32 } %22
}

; Function Attrs: mustprogress nounwind uwtable
define linkonce_odr void @_ZN9grpc_core19PolymorphicRefCountD2Ev(ptr noundef nonnull align 8 dereferenceable(8) %0) unnamed_addr #8 comdat align 2 {
  %2 = alloca ptr, align 8
  store ptr %0, ptr %2, align 8, !tbaa !201
  ret void
}

; Function Attrs: mustprogress nounwind uwtable
define linkonce_odr void @_ZNKO4absl12lts_2024072212log_internal7VoidifyaaINS1_10LogMessageEEEvRKT_(ptr noundef nonnull align 1 dereferenceable(1) %0, ptr noundef nonnull align 8 dereferenceable(16) %1) #8 comdat align 2 {
  %3 = alloca ptr, align 8
  %4 = alloca ptr, align 8
  store ptr %0, ptr %3, align 8, !tbaa !49
  store ptr %1, ptr %4, align 8, !tbaa !51
  ret void
}

; Function Attrs: mustprogress uwtable
define linkonce_odr noundef nonnull align 8 dereferenceable(16) ptr @_ZN4absl12lts_2024072212log_internal10LogMessagelsILi38EEERS2_RAT__Kc(ptr noundef nonnull align 8 dereferenceable(16) %0, ptr noundef nonnull align 1 dereferenceable(38) %1) #4 comdat align 2 {
  %3 = alloca ptr, align 8
  %4 = alloca ptr, align 8
  %5 = alloca %"class.std::basic_string_view", align 8
  store ptr %0, ptr %3, align 8, !tbaa !51
  store ptr %1, ptr %4, align 8, !tbaa !8
  %6 = load ptr, ptr %3, align 8
  %7 = load ptr, ptr %4, align 8, !tbaa !8
  %8 = getelementptr inbounds [38 x i8], ptr %7, i64 0, i64 0
  call void @_ZNSt17basic_string_viewIcSt11char_traitsIcEEC2EPKc(ptr noundef nonnull align 8 dereferenceable(16) %5, ptr noundef %8) #3
  %9 = getelementptr inbounds nuw { i64, ptr }, ptr %5, i32 0, i32 0
  %10 = load i64, ptr %9, align 8
  %11 = getelementptr inbounds nuw { i64, ptr }, ptr %5, i32 0, i32 1
  %12 = load ptr, ptr %11, align 8
  call void @_ZN4absl12lts_2024072212log_internal10LogMessage19CopyToEncodedBufferILNS2_10StringTypeE0EEEvSt17basic_string_viewIcSt11char_traitsIcEE(ptr noundef nonnull align 8 dereferenceable(16) %6, i64 %10, ptr %12)
  ret ptr %6
}

; Function Attrs: mustprogress nounwind uwtable
define linkonce_odr noundef nonnull align 8 dereferenceable(16) ptr @_ZN4absl12lts_2024072212log_internal10LogMessage14InternalStreamEv(ptr noundef nonnull align 8 dereferenceable(16) %0) #8 comdat align 2 {
  %2 = alloca ptr, align 8
  store ptr %0, ptr %2, align 8, !tbaa !51
  %3 = load ptr, ptr %2, align 8
  ret ptr %3
}

; Function Attrs: inlinehint mustprogress nounwind uwtable
define linkonce_odr void @_ZN15grpc_ssl_configC2Ev(ptr noundef nonnull align 8 dereferenceable(48) %0) unnamed_addr #6 comdat align 2 {
  %2 = alloca ptr, align 8
  store ptr %0, ptr %2, align 8, !tbaa !34
  %3 = load ptr, ptr %2, align 8
  %4 = getelementptr inbounds nuw %struct.grpc_ssl_config, ptr %3, i32 0, i32 3
  store i32 0, ptr %4, align 8, !tbaa !36
  %5 = getelementptr inbounds nuw %struct.grpc_ssl_config, ptr %3, i32 0, i32 4
  store i32 1, ptr %5, align 4, !tbaa !37
  ret void
}

; Function Attrs: inlinehint mustprogress uwtable
define linkonce_odr void @_ZN24grpc_channel_credentialsC2Ev(ptr noundef nonnull align 8 dereferenceable(16) %0) unnamed_addr #5 comdat align 2 {
  %2 = alloca ptr, align 8
  store ptr %0, ptr %2, align 8, !tbaa !32
  %3 = load ptr, ptr %2, align 8
  call void @_ZN9grpc_core10RefCountedI24grpc_channel_credentialsNS_19PolymorphicRefCountENS_11UnrefDeleteEEC2EPKcl(ptr noundef nonnull align 8 dereferenceable(16) %3, ptr noundef null, i64 noundef 1)
  store ptr getelementptr inbounds inrange(-16, 56) ({ [9 x ptr] }, ptr @_ZTV24grpc_channel_credentials, i32 0, i32 0, i32 2), ptr %3, align 8, !tbaa !11
  ret void
}

; Function Attrs: mustprogress uwtable
define void @_ZN20grpc_ssl_credentialsC2EPKcP26grpc_ssl_pem_key_cert_pairPK28grpc_ssl_verify_peer_options(ptr noundef nonnull align 8 dereferenceable(84) %0, ptr noundef %1, ptr noundef %2, ptr noundef %3) unnamed_addr #4 align 2 personality ptr @__gxx_personality_v0 {
  %5 = alloca ptr, align 8
  %6 = alloca ptr, align 8
  %7 = alloca ptr, align 8
  %8 = alloca ptr, align 8
  %9 = alloca ptr, align 8
  %10 = alloca i32, align 4
  %11 = alloca ptr, align 8
  %12 = alloca %"class.absl::lts_20240722::log_internal::Voidify", align 1
  %13 = alloca %"class.absl::lts_20240722::log_internal::LogMessage", align 8
  %14 = alloca ptr, align 8
  store ptr %0, ptr %5, align 8, !tbaa !3
  store ptr %1, ptr %6, align 8, !tbaa !8
  store ptr %2, ptr %7, align 8, !tbaa !10
  store ptr %3, ptr %8, align 8, !tbaa !10
  %15 = load ptr, ptr %5, align 8
  call void @_ZN24grpc_channel_credentialsC2Ev(ptr noundef nonnull align 8 dereferenceable(16) %15)
  store ptr getelementptr inbounds inrange(-16, 56) ({ [9 x ptr] }, ptr @_ZTV20grpc_ssl_credentials, i32 0, i32 0, i32 2), ptr %15, align 8, !tbaa !11
  %16 = getelementptr inbounds nuw %class.grpc_ssl_credentials, ptr %15, i32 0, i32 1
  call void @_ZN15grpc_ssl_configC2Ev(ptr noundef nonnull align 8 dereferenceable(48) %16) #3
  %17 = getelementptr inbounds nuw %class.grpc_ssl_credentials, ptr %15, i32 0, i32 2
  store ptr null, ptr %17, align 8, !tbaa !13
  %18 = getelementptr inbounds nuw %class.grpc_ssl_credentials, ptr %15, i32 0, i32 3
  store ptr null, ptr %18, align 8, !tbaa !29
  %19 = load ptr, ptr %6, align 8, !tbaa !8
  %20 = load ptr, ptr %7, align 8, !tbaa !10
  %21 = load ptr, ptr %8, align 8, !tbaa !10
  invoke void @_ZN20grpc_ssl_credentials12build_configEPKcP26grpc_ssl_pem_key_cert_pairPK28grpc_ssl_verify_peer_options(ptr noundef nonnull align 8 dereferenceable(84) %15, ptr noundef %19, ptr noundef %20, ptr noundef %21)
          to label %22 unwind label %39

22:                                               ; preds = %4
  %23 = getelementptr inbounds nuw %class.grpc_ssl_credentials, ptr %15, i32 0, i32 1
  %24 = getelementptr inbounds nuw %struct.grpc_ssl_config, ptr %23, i32 0, i32 1
  %25 = load ptr, ptr %24, align 8, !tbaa !30
  %26 = icmp eq ptr %25, null
  br i1 %26, label %27, label %72

27:                                               ; preds = %22
  call void @llvm.lifetime.start.p0(i64 8, ptr %11) #3
  %28 = invoke noundef ptr @_ZN9grpc_core19DefaultSslRootStore15GetPemRootCertsEv()
          to label %29 unwind label %43

29:                                               ; preds = %27
  store ptr %28, ptr %11, align 8, !tbaa !8
  %30 = load ptr, ptr %11, align 8, !tbaa !8
  %31 = icmp eq ptr %30, null
  br i1 %31, label %32, label %56

32:                                               ; preds = %29
  call void @llvm.lifetime.start.p0(i64 1, ptr %12) #3
  call void @llvm.lifetime.start.p0(i64 16, ptr %13) #3
  invoke void @_ZN4absl12lts_2024072212log_internal10LogMessageC1EPKciNS2_8ErrorTagE(ptr noundef nonnull align 8 dereferenceable(16) %13, ptr noundef @.str, i32 noundef 54) #24
          to label %33 unwind label %47

33:                                               ; preds = %32
  %34 = invoke noundef nonnull align 8 dereferenceable(16) ptr @_ZN4absl12lts_2024072212log_internal10LogMessage14InternalStreamEv(ptr noundef nonnull align 8 dereferenceable(16) %13)
          to label %35 unwind label %51

35:                                               ; preds = %33
  %36 = invoke noundef nonnull align 8 dereferenceable(16) ptr @_ZN4absl12lts_2024072212log_internal10LogMessagelsILi38EEERS2_RAT__Kc(ptr noundef nonnull align 8 dereferenceable(16) %34, ptr noundef nonnull align 1 dereferenceable(38) @.str.1)
          to label %37 unwind label %51

37:                                               ; preds = %35
  invoke void @_ZNKO4absl12lts_2024072212log_internal7VoidifyaaINS1_10LogMessageEEEvRKT_(ptr noundef nonnull align 1 dereferenceable(1) %12, ptr noundef nonnull align 8 dereferenceable(16) %36)
          to label %38 unwind label %51

38:                                               ; preds = %37
  call void @_ZN4absl12lts_2024072212log_internal10LogMessageD1Ev(ptr noundef nonnull align 8 dereferenceable(16) %13) #25
  call void @llvm.lifetime.end.p0(i64 16, ptr %13) #3
  call void @llvm.lifetime.end.p0(i64 1, ptr %12) #3
  br label %70

39:                                               ; preds = %79, %4
  %40 = landingpad { ptr, i32 }
          cleanup
  %41 = extractvalue { ptr, i32 } %40, 0
  store ptr %41, ptr %9, align 8
  %42 = extractvalue { ptr, i32 } %40, 1
  store i32 %42, ptr %10, align 4
  br label %90

43:                                               ; preds = %27
  %44 = landingpad { ptr, i32 }
          cleanup
  %45 = extractvalue { ptr, i32 } %44, 0
  store ptr %45, ptr %9, align 8
  %46 = extractvalue { ptr, i32 } %44, 1
  store i32 %46, ptr %10, align 4
  br label %71

47:                                               ; preds = %32
  %48 = landingpad { ptr, i32 }
          cleanup
  %49 = extractvalue { ptr, i32 } %48, 0
  store ptr %49, ptr %9, align 8
  %50 = extractvalue { ptr, i32 } %48, 1
  store i32 %50, ptr %10, align 4
  br label %55

51:                                               ; preds = %37, %35, %33
  %52 = landingpad { ptr, i32 }
          cleanup
  %53 = extractvalue { ptr, i32 } %52, 0
  store ptr %53, ptr %9, align 8
  %54 = extractvalue { ptr, i32 } %52, 1
  store i32 %54, ptr %10, align 4
  call void @_ZN4absl12lts_2024072212log_internal10LogMessageD1Ev(ptr noundef nonnull align 8 dereferenceable(16) %13) #25
  br label %55

55:                                               ; preds = %51, %47
  call void @llvm.lifetime.end.p0(i64 16, ptr %13) #3
  call void @llvm.lifetime.end.p0(i64 1, ptr %12) #3
  br label %71

56:                                               ; preds = %29
  call void @llvm.lifetime.start.p0(i64 8, ptr %14) #3
  %57 = load ptr, ptr %11, align 8, !tbaa !8
  %58 = invoke ptr @gpr_strdup(ptr noundef %57)
          to label %59 unwind label %66

59:                                               ; preds = %56
  store ptr %58, ptr %14, align 8, !tbaa !8
  %60 = load ptr, ptr %14, align 8, !tbaa !8
  %61 = getelementptr inbounds nuw %class.grpc_ssl_credentials, ptr %15, i32 0, i32 1
  %62 = getelementptr inbounds nuw %struct.grpc_ssl_config, ptr %61, i32 0, i32 1
  store ptr %60, ptr %62, align 8, !tbaa !30
  %63 = invoke noundef ptr @_ZN9grpc_core19DefaultSslRootStore12GetRootStoreEv()
          to label %64 unwind label %66

64:                                               ; preds = %59
  %65 = getelementptr inbounds nuw %class.grpc_ssl_credentials, ptr %15, i32 0, i32 3
  store ptr %63, ptr %65, align 8, !tbaa !29
  call void @llvm.lifetime.end.p0(i64 8, ptr %14) #3
  br label %70

66:                                               ; preds = %59, %56
  %67 = landingpad { ptr, i32 }
          cleanup
  %68 = extractvalue { ptr, i32 } %67, 0
  store ptr %68, ptr %9, align 8
  %69 = extractvalue { ptr, i32 } %67, 1
  store i32 %69, ptr %10, align 4
  call void @llvm.lifetime.end.p0(i64 8, ptr %14) #3
  br label %71

70:                                               ; preds = %64, %38
  call void @llvm.lifetime.end.p0(i64 8, ptr %11) #3
  br label %79

71:                                               ; preds = %66, %55, %43
  call void @llvm.lifetime.end.p0(i64 8, ptr %11) #3
  br label %90

72:                                               ; preds = %22
  %73 = getelementptr inbounds nuw %class.grpc_ssl_credentials, ptr %15, i32 0, i32 1
  %74 = getelementptr inbounds nuw %struct.grpc_ssl_config, ptr %73, i32 0, i32 1
  %75 = load ptr, ptr %74, align 8, !tbaa !30
  %76 = getelementptr inbounds nuw %class.grpc_ssl_credentials, ptr %15, i32 0, i32 1
  %77 = getelementptr inbounds nuw %struct.grpc_ssl_config, ptr %76, i32 0, i32 1
  store ptr %75, ptr %77, align 8, !tbaa !30
  %78 = getelementptr inbounds nuw %class.grpc_ssl_credentials, ptr %15, i32 0, i32 3
  store ptr null, ptr %78, align 8, !tbaa !29
  br label %79

79:                                               ; preds = %72, %70
  %80 = getelementptr inbounds nuw %class.grpc_ssl_credentials, ptr %15, i32 0, i32 1
  %81 = getelementptr inbounds nuw %class.grpc_ssl_credentials, ptr %15, i32 0, i32 1
  %82 = getelementptr inbounds nuw %struct.grpc_ssl_config, ptr %81, i32 0, i32 1
  %83 = load ptr, ptr %82, align 8, !tbaa !30
  %84 = getelementptr inbounds nuw %class.grpc_ssl_credentials, ptr %15, i32 0, i32 3
  %85 = load ptr, ptr %84, align 8, !tbaa !29
  %86 = getelementptr inbounds nuw %class.grpc_ssl_credentials, ptr %15, i32 0, i32 2
  %87 = invoke noundef i32 @_ZN20grpc_ssl_credentials33InitializeClientHandshakerFactoryEPK15grpc_ssl_configPKcPK24tsi_ssl_root_certs_storeP21tsi_ssl_session_cachePP33tsi_ssl_client_handshaker_factory(ptr noundef nonnull align 8 dereferenceable(84) %15, ptr noundef %80, ptr noundef %83, ptr noundef %85, ptr noundef null, ptr noundef %86)
          to label %88 unwind label %39

88:                                               ; preds = %79
  %89 = getelementptr inbounds nuw %class.grpc_ssl_credentials, ptr %15, i32 0, i32 4
  store i32 %87, ptr %89, align 8, !tbaa !31
  ret void

90:                                               ; preds = %71, %39
  call void @_ZN9grpc_core19PolymorphicRefCountD2Ev(ptr noundef nonnull align 8 dereferenceable(16) %15) #3
  br label %91

91:                                               ; preds = %90
  %92 = load ptr, ptr %9, align 8
  %93 = load i32, ptr %10, align 4
  %94 = insertvalue { ptr, i32 } poison, ptr %92, 0
  %95 = insertvalue { ptr, i32 } %94, i32 %93, 1
  resume { ptr, i32 } %95
}