; Function Attrs: mustprogress uwtable
define void @_ZN20grpc_ssl_credentialsC2EPKcP26grpc_ssl_pem_key_cert_pairPK28grpc_ssl_verify_peer_options(ptr noundef nonnull align 8 dereferenceable(84) initializes((0, 16), (24, 32), (56, 80)) %0, ptr noundef %1, ptr noundef %2, ptr noundef %3) unnamed_addr #3 align 2 personality ptr @__gxx_personality_v0 {
  %5 = alloca %"class.absl::lts_20240722::log_internal::LogMessage", align 8
  %6 = getelementptr inbounds nuw i8, ptr %0, i64 8
  store i64 1, ptr %6, align 8, !tbaa !3
  store ptr getelementptr inbounds nuw inrange(-16, 56) (i8, ptr @_ZTV20grpc_ssl_credentials, i64 16), ptr %0, align 8, !tbaa !8
  %7 = getelementptr inbounds nuw i8, ptr %0, i64 56
  store i32 0, ptr %7, align 8, !tbaa !10
  %8 = getelementptr inbounds nuw i8, ptr %0, i64 60
  store i32 1, ptr %8, align 4, !tbaa !17
  %9 = getelementptr inbounds nuw i8, ptr %0, i64 64
  %10 = getelementptr inbounds nuw i8, ptr %0, i64 72
  tail call void @llvm.memset.p0.i64(ptr noundef nonnull align 8 dereferenceable(16) %9, i8 0, i64 16, i1 false)
  tail call void @_ZN20grpc_ssl_credentials12build_configEPKcP26grpc_ssl_pem_key_cert_pairPK28grpc_ssl_verify_peer_options(ptr noundef nonnull align 8 dereferenceable(84) %0, ptr noundef %1, ptr noundef %2, ptr noundef %3)
  %11 = getelementptr inbounds nuw i8, ptr %0, i64 24
  %12 = load ptr, ptr %11, align 8, !tbaa !18
  %13 = icmp eq ptr %12, null
  br i1 %13, label %14, label %23

14:                                               ; preds = %4
  %15 = tail call noundef ptr @_ZN9grpc_core19DefaultSslRootStore15GetPemRootCertsEv()
  %16 = icmp eq ptr %15, null
  br i1 %16, label %17, label %20

17:                                               ; preds = %14
  call void @llvm.lifetime.start.p0(i64 16, ptr nonnull %5) #28
  call void @_ZN4absl12lts_2024072212log_internal10LogMessageC1EPKciNS2_8ErrorTagE(ptr noundef nonnull align 8 dereferenceable(16) %5, ptr noundef nonnull @.str, i32 noundef 54) #29
  invoke void @_ZN4absl12lts_2024072212log_internal10LogMessage19CopyToEncodedBufferILNS2_10StringTypeE0EEEvSt17basic_string_viewIcSt11char_traitsIcEE(ptr noundef nonnull align 8 dereferenceable(16) %5, i64 37, ptr nonnull @.str.1)
          to label %_ZN4absl12lts_2024072212log_internal10LogMessagelsILi38EEERS2_RAT__Kc.exit unwind label %18

_ZN4absl12lts_2024072212log_internal10LogMessagelsILi38EEERS2_RAT__Kc.exit: ; preds = %17
  call void @_ZN4absl12lts_2024072212log_internal10LogMessageD1Ev(ptr noundef nonnull align 8 dereferenceable(16) %5) #30
  call void @llvm.lifetime.end.p0(i64 16, ptr nonnull %5) #28
  %.pre = load ptr, ptr %10, align 8, !tbaa !28
  br label %24

18:                                               ; preds = %17
  %19 = landingpad { ptr, i32 }
          cleanup
  call void @_ZN4absl12lts_2024072212log_internal10LogMessageD1Ev(ptr noundef nonnull align 8 dereferenceable(16) %5) #30
  call void @llvm.lifetime.end.p0(i64 16, ptr nonnull %5) #28
  resume { ptr, i32 } %19

20:                                               ; preds = %14
  %21 = tail call ptr @gpr_strdup(ptr noundef nonnull %15)
  store ptr %21, ptr %11, align 8, !tbaa !18
  %22 = tail call noundef ptr @_ZN9grpc_core19DefaultSslRootStore12GetRootStoreEv()
  store ptr %22, ptr %10, align 8, !tbaa !28
  br label %24

23:                                               ; preds = %4
  store ptr null, ptr %10, align 8, !tbaa !28
  br label %24

24:                                               ; preds = %_ZN4absl12lts_2024072212log_internal10LogMessagelsILi38EEERS2_RAT__Kc.exit, %20, %23
  %25 = phi ptr [ %.pre, %_ZN4absl12lts_2024072212log_internal10LogMessagelsILi38EEERS2_RAT__Kc.exit ], [ %22, %20 ], [ null, %23 ]
  %26 = getelementptr inbounds nuw i8, ptr %0, i64 16
  %27 = load ptr, ptr %11, align 8, !tbaa !18
  %28 = call noundef i32 @_ZN20grpc_ssl_credentials33InitializeClientHandshakerFactoryEPK15grpc_ssl_configPKcPK24tsi_ssl_root_certs_storeP21tsi_ssl_session_cachePP33tsi_ssl_client_handshaker_factory(ptr noundef nonnull align 8 dereferenceable(84) %0, ptr noundef nonnull %26, ptr noundef %27, ptr noundef %25, ptr noundef null, ptr noundef nonnull %9)
  %29 = getelementptr inbounds nuw i8, ptr %0, i64 80
  store i32 %28, ptr %29, align 8, !tbaa !29
  ret void
}